(dp0
S'path'
p1
Vgoto(1000)\u000aslow(500,inertia=5,speed=500)\u000agoto(1000)\u000acst_f(200,5)\u000await(5)\u000aslow(500)\u000a\u000a
p2
sS'lj'
p3
(lp4
(dp5
S'name'
p6
S'AIN0'
p7
sS'range'
p8
F10.0
sS'zero'
p9
I00
sS'gain'
p10
F1.5
sS'offset'
p11
F0.0
sS'lbl'
p12
S'T0'
p13
sa(dp14
g6
S'AIN1'
p15
sg8
F10.0
sg9
I00
sg10
F1.5
sg11
F0.0
sg12
S'T1'
p16
sa(dp17
g6
S'AIN2'
p18
sg8
F10.0
sg9
I00
sg10
F1.5
sg11
F0.0
sg12
S'T2'
p19
sa(dp20
g6
S'AIN3'
p21
sg8
F10.0
sg9
I00
sg10
F1.5
sg11
F0.0
sg12
S'T3'
p22
sa(dp23
g6
S'AIN4'
p24
sg8
F10.0
sg9
I00
sg10
F1.5
sg11
F0.0
sg12
S'T4'
p25
sa(dp26
g6
S'AIN5'
p27
sg8
F10.0
sg9
I00
sg10
F1.5
sg11
F0.0
sg12
S'T5'
p28
sa(dp29
g6
S'AIN8'
p30
sg8
F10.0
sg9
I00
sg10
F1.5
sg11
F0.0
sg12
S'speed_cmd'
p31
sasS'spectrum'
p32
(lp33
(dp34
g8
I10
sS'chan'
p35
S'1'
p36
sg12
S'C(Nm)'
p37
sg10
I2
sa(dp38
g8
F10.0
sg35
I0
sg12
S'F(N)'
p39
sg10
F1.0
sa(dp40
g8
F10.0
sg35
I2
sg12
S'V(rpm)'
p41
sg10
F1.0
sa(dp42
g8
F10.0
sg35
I3
sg12
S'Fn(N)'
p43
sg10
F1.0
sa(dp44
g8
F10.0
sg35
I4
sg12
S'Ft(N)'
p45
sg10
F1.0
sa(dp46
g8
F10.0
sg35
I5
sg12
S'Fr(N)'
p47
sg10
F1.0
sa(dp48
g8
F10.0
sg35
I6
sg12
S'top(V)'
p49
sg10
F1.0
sasS'graph'
p50
(dp51
S'Graph2'
p52
(lp53
S'C(Nm)'
p54
aS'F(N)'
p55
aS'V(rpm)'
p56
asS'Graph1'
p57
(lp58
S'T0'
p59
aS'T3'
p60
aS'T5'
p61
ass.