(dp0
S'path'
p1
Vgoto(1000)\u000aslow(500,inertia=5,speed=500)\u000agoto(1000)\u000acst_f(200,5)\u000await(5)\u000aslow(500)\u000a\u000a\u000a
p2
sS'lj'
p3
(lp4
(dp5
S'name'
p6
S'AIN0'
p7
sS'zero'
p8
I00
sS'range'
p9
F10.0
sS'gain'
p10
F1.5
sS'offset'
p11
F0.0
sS'lbl'
p12
S'T0'
p13
sa(dp14
g6
S'AIN1'
p15
sg8
I00
sg9
F10.0
sg10
F1.5
sg11
F0.0
sg12
S'T1'
p16
sa(dp17
g6
S'AIN2'
p18
sg8
I00
sg9
F10.0
sg10
F1.5
sg11
F0.0
sg12
S'T2'
p19
sa(dp20
g6
S'AIN3'
p21
sg8
I00
sg9
F10.0
sg10
F1.5
sg11
F0.0
sg12
S'T3'
p22
sa(dp23
g6
S'AIN4'
p24
sg8
I00
sg9
F10.0
sg10
F1.5
sg11
F0.0
sg12
S'T4'
p25
sa(dp26
g6
S'AIN5'
p27
sg8
I00
sg9
F10.0
sg10
F1.5
sg11
F0.0
sg12
S'T5'
p28
sa(dp29
g6
S'AIN8'
p30
sg8
I00
sg9
F10.0
sg10
F1.5
sg11
F0.0
sg12
S'speed_cmd'
p31
sasS'spectrum'
p32
(lp33
(dp34
g9
F10.0
sS'chan'
p35
I0
sg12
S'F(N)'
p36
sg10
F1.0
sa(dp37
g9
F10.0
sg35
I2
sg12
S'V(rpm)'
p38
sg10
F1.0
sa(dp39
g9
F10.0
sg35
I3
sg12
S'Fn(N)'
p40
sg10
F1.0
sa(dp41
g9
F10.0
sg35
I4
sg12
S'Ft(N)'
p42
sg10
F1.0
sa(dp43
g9
F10.0
sg35
I5
sg12
S'Fr(N)'
p44
sg10
F1.0
sa(dp45
g9
F10.0
sg35
I6
sg12
S'top(V)'
p46
sg10
F1.0
sa(dp47
S'range'
p48
F10.0
sS'chan'
p49
I1
sS'lbl'
p50
S'C(Nm)'
p51
sS'gain'
p52
F2.0
sasS'graph'
p53
(dp54
S'Graph2'
p55
(lp56
S'C(Nm)'
p57
aS'F(N)'
p58
aS'V(rpm)'
p59
asS'Graph1'
p60
(lp61
S'T0'
p62
aS'T3'
p63
aS'T5'
p64
ass.