(dp0
S'path'
p1
Vgoto(500)\u000aslow(800)\u000a\u000a\u000a\u000a\u000a\u000a\u000a\u000a
p2
sS'lj'
p3
(F100.0
(lp4
(dp5
S'make_zero'
p6
I00
sS'name'
p7
S'AIN1'
p8
sS'range'
p9
F10.0
sS'gain'
p10
F135.0
sS'offset'
p11
F0.0
sS'lbl'
p12
S'T1'
p13
sa(dp14
g6
I00
sg7
S'AIN2'
p15
sg9
F10.0
sg10
F135.0
sg11
F0.0
sg12
S'T2'
p16
sa(dp17
g6
I00
sg7
S'AIN3'
p18
sg9
F10.0
sg10
F135.0
sg11
F0.0
sg12
S'T3'
p19
sa(dp20
g6
I00
sg7
S'AIN4'
p21
sg9
F10.0
sg10
F135.0
sg11
F0.0
sg12
S'T4'
p22
sa(dp23
g6
I00
sg7
S'AIN5'
p24
sg9
F10.0
sg10
F135.0
sg11
F0.0
sg12
S'T5'
p25
sa(dp26
g6
I00
sg7
S'AIN6'
p27
sg9
F10.0
sg10
F135.0
sg11
F0.0
sg12
S'T6'
p28
sa(dp29
g6
I00
sg7
S'AIN7'
p30
sg9
F10.0
sg10
F135.0
sg11
F0.0
sg12
S'T7'
p31
sa(dp32
g6
I00
sg7
S'AIN8'
p33
sg9
F10.0
sg10
F135.0
sg11
F0.0
sg12
S'T8'
p34
sa(dp35
g6
I00
sg7
S'AIN9'
p36
sg9
F10.0
sg10
F135.0
sg11
F0.0
sg12
S'T9'
p37
sa(dp38
g6
I00
sg7
S'AIN10'
p39
sg9
F10.0
sg10
F135.0
sg11
F0.0
sg12
S'T10'
p40
sa(dp41
g6
I00
sg7
S'AIN11'
p42
sg9
F10.0
sg10
F135.0
sg11
F0.0
sg12
S'T11'
p43
sa(dp44
g6
I00
sg7
S'AIN12'
p45
sg9
F10.0
sg10
F135.0
sg11
F0.0
sg12
S'T12'
p46
sa(dp47
g6
I00
sg7
S'AIN13'
p48
sg9
F10.0
sg10
F135.0
sg11
F0.0
sg12
S'T13'
p49
satp50
sS'spectrum'
p51
(F100.0
(lp52
(dp53
S'range'
p54
F10.0
sS'chan'
p55
I0
sS'lbl'
p56
S'Trig(V)'
p57
sS'gain'
p58
F1.0
sa(dp59
g54
F10.0
sg55
I1
sg56
S'Fn(N)'
p60
sg58
F500.0
sa(dp61
g54
F10.0
sg55
I2
sg56
S'Ft(N)'
p62
sg58
F500.0
sa(dp63
g54
F10.0
sg55
I3
sg56
S'Fr(N)'
p64
sg58
F500.0
sa(dp65
g54
F10.0
sg55
I4
sg56
S'F(N)'
p66
sg58
F2060.0
sa(dp67
g54
F10.0
sg55
I5
sg56
S'C(Nm)'
p68
sg58
F-50.0
sa(dp69
g54
F10.0
sg55
I6
sg56
S'top(V)'
p70
sg58
F1.0
sa(dp71
g54
F10.0
sg55
I7
sg56
S'speed(rpm)'
p72
sg58
F413.0
sa(dp73
g9
F10000.0
sS'chan'
p74
I8
sg12
S'CapA(mm)'
p75
sg10
F0.25
sa(dp76
g9
F10000.0
sg74
I9
sg12
S'CapB(mm)'
p77
sg10
F0.25
satp78
sS'graph'
p79
(I0
(dp80
S'Graph2'
p81
(lp82
S'T1'
p83
aS'T3'
p84
asS'Graph1'
p85
(lp86
S'lj1_rpm(t/min)'
p87
aS'lj1_F(N)'
p88
astp89
s.