(dp0
S'path'
p1
Vgoto(500)\u000aslow(800)\u000a\u000a\u000a\u000a\u000a
p2
sS'lj'
p3
(F200.0
(lp4
(dp5
S'make_zero'
p6
I00
sS'name'
p7
S'AIN0'
p8
sS'range'
p9
F10.0
sS'gain'
p10
F135.0
sS'offset'
p11
F0.0
sS'lbl'
p12
S'T1'
p13
sa(dp14
g6
I00
sg7
S'AIN2'
p15
sg9
F10.0
sg10
F135.0
sg11
F0.0
sg12
S'T3'
p16
satp17
sS'spectrum'
p18
(F100.0
(lp19
(dp20
S'range'
p21
F10.0
sS'chan'
p22
I0
sS'lbl'
p23
S'Trig(V)'
p24
sS'gain'
p25
F1.0
sa(dp26
g21
F10.0
sg22
I1
sg23
S'Fn(N)'
p27
sg25
F500.0
sa(dp28
g21
F10.0
sg22
I2
sg23
S'Ft(N)'
p29
sg25
F500.0
sa(dp30
g21
F10.0
sg22
I3
sg23
S'Fr(N)'
p31
sg25
F500.0
sa(dp32
g21
F10.0
sg22
I4
sg23
S'F(N)'
p33
sg25
F2060.0
sa(dp34
g21
F10.0
sg22
I5
sg23
S'C(Nm)'
p35
sg25
F-50.0
sa(dp36
g21
F10.0
sg22
I6
sg23
S'top(V)'
p37
sg25
F1.0
sa(dp38
g21
F10.0
sg22
I7
sg23
S'speed(rpm)'
p39
sg25
F413.0
satp40
sS'graph'
p41
(dp42
S'Graph2'
p43
(lp44
S'lj1_rpm(t/min)'
p45
aS'lj1_F(N)'
p46
asS'Graph3'
p47
(lp48
S'T1'
p49
aS'T3'
p50
asS'Graph1'
p51
(lp52
S'Fn(N)'
p53
aS'Ft(N)'
p54
aS'Fr(N)'
p55
ass.