(dp0
S'path'
p1
Vgoto(1000)\u000aslow(500,inertia=5,speed=500)\u000agoto(1000)\u000acst_f(200,5)\u000await(5)\u000aslow(500)\u000a\u000a
p2
sS'lj'
p3
(lp4
(dp5
S'chan'
p6
S'AIN0'
p7
sS'zero'
p8
I00
sS'range'
p9
F10.0
sS'gain'
p10
F1.5
sS'offset'
p11
F0.0
sS'lbl'
p12
S'T0'
p13
sa(dp14
g6
S'AIN1'
p15
sg8
I00
sg9
F10.0
sg10
F1.5
sg11
F0.0
sg12
S'T1'
p16
sa(dp17
g6
S'AIN2'
p18
sg8
I00
sg9
F10.0
sg10
F1.5
sg11
F0.0
sg12
S'T2'
p19
sa(dp20
g6
S'AIN3'
p21
sg8
I00
sg9
F10.0
sg10
F1.5
sg11
F0.0
sg12
S'T3'
p22
sa(dp23
g6
S'AIN4'
p24
sg8
I00
sg9
F10.0
sg10
F1.5
sg11
F0.0
sg12
S'T4'
p25
sa(dp26
g6
S'AIN5'
p27
sg8
I00
sg9
F10.0
sg10
F1.5
sg11
F0.0
sg12
S'T5'
p28
sa(dp29
g6
S'AIN8'
p30
sg8
I00
sg9
F10.0
sg10
F1.5
sg11
F0.0
sg12
S'speed_cmd'
p31
sasS'spectrum'
p32
(lp33
(dp34
g9
I10
sg6
S'1'
p35
sg12
S'C(Nm)'
p36
sg10
I2
sa(dp37
g9
F10.0
sg6
I0
sg12
S'F(N)'
p38
sg10
F1.0
sa(dp39
g9
F10.0
sg6
I2
sg12
S'V(rpm)'
p40
sg10
F1.0
sa(dp41
g9
F10.0
sg6
I3
sg12
S'Fn(N)'
p42
sg10
F1.0
sa(dp43
g9
F10.0
sg6
I4
sg12
S'Ft(N)'
p44
sg10
F1.0
sa(dp45
g9
F10.0
sg6
I5
sg12
S'Fr(N)'
p46
sg10
F1.0
sa(dp47
g9
F10.0
sg6
I6
sg12
S'top(V)'
p48
sg10
F1.0
sasS'graph'
p49
(dp50
S'Graph2'
p51
(lp52
S'C(Nm)'
p53
aS'F(N)'
p54
aS'V(rpm)'
p55
asS'Graph1'
p56
(lp57
S'T0'
p58
aS'T3'
p59
aS'T5'
p60
ass.