(dp0
S'path'
p1
Vgoto(500)\u000aslow(800,inertia=2)\u000a\u000a
p2
sS'lj'
p3
(lp4
(dp5
S'name'
p6
S'AIN0'
p7
sS'zero'
p8
I00
sS'range'
p9
F10.0
sS'gain'
p10
F135.0
sS'offset'
p11
F0.0
sS'lbl'
p12
S'T1'
p13
sa(dp14
g6
S'AIN2'
p15
sg8
I00
sg9
F10.0
sg10
F135.0
sg11
F0.0
sg12
S'T3'
p16
sasS'spectrum'
p17
(lp18
(dp19
S'range'
p20
F10.0
sS'chan'
p21
I0
sS'lbl'
p22
S'F(N)'
p23
sS'gain'
p24
F1.0
sa(dp25
g20
F10.0
sg21
I2
sg22
S'V(rpm)'
p26
sg24
F1.0
sa(dp27
g20
F10.0
sg21
I3
sg22
S'Fn(N)'
p28
sg24
F1.0
sa(dp29
g20
F10.0
sg21
I4
sg22
S'Ft(N)'
p30
sg24
F1.0
sa(dp31
g20
F10.0
sg21
I5
sg22
S'Fr(N)'
p32
sg24
F1.0
sa(dp33
g20
F10.0
sg21
I6
sg22
S'top(V)'
p34
sg24
F1.0
sa(dp35
S'range'
p36
F10.0
sS'chan'
p37
I1
sS'lbl'
p38
S'C(Nm)'
p39
sS'gain'
p40
F2.0
sasS'graph'
p41
(dp42
S'Graph2'
p43
(lp44
S'lj1_C(Nm)'
p45
asS'Graph3'
p46
(lp47
S'lj1_rpm(t/min)'
p48
aS'lj1_F(N)'
p49
asS'Graph1'
p50
(lp51
S'T3'
p52
aS'T1'
p53
ass.