(dp0
S'path'
p1
Vgoto(500)\u000aslow(800,inertia=2)\u000a
p2
sS'lj'
p3
(lp4
(dp5
S'name'
p6
S'AIN0'
p7
sS'zero'
p8
I00
sS'range'
p9
F10.0
sS'gain'
p10
F135.0
sS'offset'
p11
F0.0
sS'lbl'
p12
S'T1'
p13
sa(dp14
g6
S'AIN2'
p15
sg8
I00
sg9
F10.0
sg10
F135.0
sg11
F0.0
sg12
S'T3'
p16
sasS'spectrum'
p17
(lp18
(dp19
S'range'
p20
I10
sS'chan'
p21
S'1'
p22
sS'lbl'
p23
S'C(Nm)'
p24
sS'gain'
p25
I2
sa(dp26
g20
F10.0
sg21
I0
sg23
S'F(N)'
p27
sg25
F1.0
sa(dp28
g20
F10.0
sg21
I2
sg23
S'V(rpm)'
p29
sg25
F1.0
sa(dp30
g20
F10.0
sg21
I3
sg23
S'Fn(N)'
p31
sg25
F1.0
sa(dp32
g20
F10.0
sg21
I4
sg23
S'Ft(N)'
p33
sg25
F1.0
sa(dp34
g20
F10.0
sg21
I5
sg23
S'Fr(N)'
p35
sg25
F1.0
sa(dp36
g20
F10.0
sg21
I6
sg23
S'top(V)'
p37
sg25
F1.0
sasS'graph'
p38
(dp39
S'Graph2'
p40
(lp41
S'lj1_C(Nm)'
p42
asS'Graph3'
p43
(lp44
S'lj1_rpm(t/min)'
p45
aS'lj1_F(N)'
p46
asS'Graph1'
p47
(lp48
S'T3'
p49
aS'T1'
p50
ass.